; Function Attrs: nounwind uwtable
define dso_local double @luaL_optnumber(ptr noundef %0, i32 noundef %1, double noundef %2) local_unnamed_addr #0 {
  %4 = tail call i32 @lua_type(ptr noundef %0, i32 noundef %1) #17
  %5 = icmp slt i32 %4, 1
  br i1 %5, label %8, label %6

6:                                                ; preds = %3
  %7 = tail call double @luaL_checknumber(ptr noundef %0, i32 noundef %1)
  br label %8

8:                                                ; preds = %3, %6
  %9 = phi double [ %7, %6 ], [ %2, %3 ]
  ret double %9
}